; ModuleID = 'source-C-CXX/44/919.c'
source_filename = "source-C-CXX/44/919.c"
target datalayout = "e-m:e-p270:32:32-p271:32:32-p272:64:64-i64:64-f80:128-n8:16:32:64-S128"
target triple = "x86_64-pc-linux-gnu"

@.str = private unnamed_addr constant [6 x i8] c"%s %s\00", align 1
@.str.1 = private unnamed_addr constant [3 x i8] c"%d\00", align 1

; Function Attrs: nofree nounwind sspstrong uwtable
define dso_local i32 @main() local_unnamed_addr #0 {
  %1 = alloca [20 x i8], align 16
  %2 = alloca [20 x i8], align 16
  %3 = getelementptr inbounds [20 x i8], [20 x i8]* %1, i64 0, i64 0
  call void @llvm.lifetime.start.p0i8(i64 20, i8* nonnull %3) #5
  %4 = getelementptr inbounds [20 x i8], [20 x i8]* %2, i64 0, i64 0
  call void @llvm.lifetime.start.p0i8(i64 20, i8* nonnull %4) #5
  %5 = call i32 (i8*, ...) @__isoc99_scanf(i8* getelementptr inbounds ([6 x i8], [6 x i8]* @.str, i64 0, i64 0), i8* nonnull %3, i8* nonnull %4)
  %6 = call i64 @strlen(i8* noundef nonnull %3) #6
  %7 = call i64 @strlen(i8* noundef nonnull %4) #6
  %8 = trunc i64 %7 to i32
  %9 = load i8, i8* %3, align 16
  %10 = icmp sgt i32 %8, 0
  %11 = trunc i64 %6 to i32
  %12 = icmp sgt i32 %11, 0
  %13 = select i1 %10, i1 %12, i1 false
  br i1 %13, label %14, label %48

14:                                               ; preds = %0
  %15 = shl i64 %6, 32
  %16 = add i64 %15, -4294967296
  %17 = ashr exact i64 %16, 32
  %18 = call i64 @llvm.smax.i64(i64 %17, i64 0)
  %19 = and i64 %7, 4294967295
  %20 = getelementptr inbounds [20 x i8], [20 x i8]* %1, i64 0, i64 0
  %21 = load i8, i8* %20, align 16
  br label %22

22:                                               ; preds = %14, %38
  %23 = phi i64 [ 0, %14 ], [ %39, %38 ]
  %24 = getelementptr inbounds [20 x i8], [20 x i8]* %2, i64 0, i64 %23
  %25 = load i8, i8* %24, align 1, !tbaa !5
  %26 = icmp eq i8 %9, %25
  br i1 %26, label %27, label %38

27:                                               ; preds = %22
  %28 = getelementptr inbounds [20 x i8], [20 x i8]* %2, i64 0, i64 %23
  %29 = load i8, i8* %28, align 1, !tbaa !5
  %30 = icmp eq i8 %21, %29
  br i1 %30, label %41, label %38

31:                                               ; preds = %41
  %32 = getelementptr inbounds [20 x i8], [20 x i8]* %1, i64 0, i64 %44
  %33 = load i8, i8* %32, align 1, !tbaa !5
  %34 = add nuw nsw i64 %44, %23
  %35 = getelementptr inbounds [20 x i8], [20 x i8]* %2, i64 0, i64 %34
  %36 = load i8, i8* %35, align 1, !tbaa !5
  %37 = icmp eq i8 %33, %36
  br i1 %37, label %41, label %38, !llvm.loop !8

38:                                               ; preds = %31, %27, %22
  %39 = add nuw nsw i64 %23, 1
  %40 = icmp eq i64 %39, %19
  br i1 %40, label %48, label %22, !llvm.loop !10

41:                                               ; preds = %27, %31
  %42 = phi i64 [ %44, %31 ], [ 0, %27 ]
  %43 = icmp eq i64 %42, %18
  %44 = add nuw nsw i64 %42, 1
  br i1 %43, label %45, label %31

45:                                               ; preds = %41
  %46 = trunc i64 %23 to i32
  %47 = call i32 (i8*, ...) @printf(i8* nonnull dereferenceable(1) getelementptr inbounds ([3 x i8], [3 x i8]* @.str.1, i64 0, i64 0), i32 %46)
  br label %48

48:                                               ; preds = %38, %0, %45
  call void @llvm.lifetime.end.p0i8(i64 20, i8* nonnull %4) #5
  call void @llvm.lifetime.end.p0i8(i64 20, i8* nonnull %3) #5
  ret i32 0
}

; Function Attrs: argmemonly mustprogress nofree nosync nounwind willreturn
declare void @llvm.lifetime.start.p0i8(i64 immarg, i8* nocapture) #1

; Function Attrs: nofree nounwind
declare noundef i32 @__isoc99_scanf(i8* nocapture noundef readonly, ...) local_unnamed_addr #2

; Function Attrs: argmemonly mustprogress nofree nounwind readonly willreturn
declare i64 @strlen(i8* nocapture) local_unnamed_addr #3

; Function Attrs: nofree nounwind
declare noundef i32 @printf(i8* nocapture noundef readonly, ...) local_unnamed_addr #2

; Function Attrs: argmemonly mustprogress nofree nosync nounwind willreturn
declare void @llvm.lifetime.end.p0i8(i64 immarg, i8* nocapture) #1

; Function Attrs: nofree nosync nounwind readnone speculatable willreturn
declare i64 @llvm.smax.i64(i64, i64) #4


!llvm.module.flags = !{!0, !1, !2, !3}
!llvm.ident = !{!4}

!0 = !{i32 1, !"wchar_size", i32 4}
!1 = !{i32 7, !"PIC Level", i32 2}
!2 = !{i32 7, !"PIE Level", i32 2}
!3 = !{i32 7, !"uwtable", i32 1}
!4 = !{!"clang version 13.0.0"}
!5 = !{!6, !6, i64 0}
!6 = !{!"omnipotent char", !7, i64 0}
!7 = !{!"Simple C/C++ TBAA"}
!8 = distinct !{!8, !9}
!9 = !{!"llvm.loop.mustprogress"}
!10 = distinct !{!10, !9}
